target datalayout = "e-m:e-p270:32:32-p271:32:32-p272:64:64-i64:64-i128:128-f80:128-n8:16:32:64-S128"
target triple = "x86_64-pc-linux-gnu"

%class.btContinuousConvexCollision = type { %class.btConvexCast, ptr, ptr, ptr, ptr, ptr }
%class.btConvexCast = type { ptr }

@_ZTV12btConvexCast = available_externally unnamed_addr constant { [5 x ptr] } { [5 x ptr] [ptr null, ptr @_ZTI12btConvexCast, ptr @_ZN12btConvexCastD1Ev, ptr @_ZN12btConvexCastD0Ev, ptr @__cxa_pure_virtual] }, align 8

; Function Attrs: inlinehint mustprogress nounwind uwtable
define linkonce_odr dso_local void @_ZN12btConvexCastC2Ev(ptr noundef nonnull align 8 dereferenceable(8) %0) unnamed_addr #2 comdat align 2 {
  %2 = alloca ptr, align 8
  store ptr %0, ptr %2, align 8, !tbaa !30
  %3 = load ptr, ptr %2, align 8
  store ptr getelementptr inbounds inrange(-16, 24) ({ [5 x ptr] }, ptr @_ZTV12btConvexCast, i32 0, i32 0, i32 2), ptr %3, align 8, !tbaa !20
  ret void
}

; Function Attrs: mustprogress nounwind uwtable
define dso_local void @_ZN27btContinuousConvexCollisionC2EPK13btConvexShapePK18btStaticPlaneShape(ptr noundef nonnull align 8 dereferenceable(48) %0, ptr noundef %1, ptr noundef %2) unnamed_addr #1 align 2 {
  %4 = alloca ptr, align 8
  %5 = alloca ptr, align 8
  %6 = alloca ptr, align 8
  store ptr %0, ptr %4, align 8, !tbaa !12
  store ptr %1, ptr %5, align 8, !tbaa !14
  store ptr %2, ptr %6, align 8, !tbaa !32
  %7 = load ptr, ptr %4, align 8
  call void @_ZN12btConvexCastC2Ev(ptr noundef nonnull align 8 dereferenceable(8) %7) #14
  store ptr getelementptr inbounds inrange(-16, 24) ({ [5 x ptr] }, ptr @_ZTV27btContinuousConvexCollision, i32 0, i32 0, i32 2), ptr %7, align 8, !tbaa !20
  %8 = getelementptr inbounds nuw %class.btContinuousConvexCollision, ptr %7, i32 0, i32 1
  store ptr null, ptr %8, align 8, !tbaa !22
  %9 = getelementptr inbounds nuw %class.btContinuousConvexCollision, ptr %7, i32 0, i32 2
  store ptr null, ptr %9, align 8, !tbaa !26
  %10 = getelementptr inbounds nuw %class.btContinuousConvexCollision, ptr %7, i32 0, i32 3
  %11 = load ptr, ptr %5, align 8, !tbaa !14
  store ptr %11, ptr %10, align 8, !tbaa !27
  %12 = getelementptr inbounds nuw %class.btContinuousConvexCollision, ptr %7, i32 0, i32 4
  store ptr null, ptr %12, align 8, !tbaa !28
  %13 = getelementptr inbounds nuw %class.btContinuousConvexCollision, ptr %7, i32 0, i32 5
  %14 = load ptr, ptr %6, align 8, !tbaa !32
  store ptr %14, ptr %13, align 8, !tbaa !29
  ret void
}